; ModuleID = 'source-C-CXX/15/1398.c'
source_filename = "source-C-CXX/15/1398.c"
target datalayout = "e-m:e-p270:32:32-p271:32:32-p272:64:64-i64:64-f80:128-n8:16:32:64-S128"
target triple = "x86_64-pc-linux-gnu"

@.str = private unnamed_addr constant [3 x i8] c"%d\00", align 1

; Function Attrs: nofree nounwind sspstrong uwtable
define dso_local i32 @main() local_unnamed_addr #0 {
  %1 = alloca i32, align 4
  %2 = alloca [5 x i32], align 16
  %3 = bitcast i32* %1 to i8*
  call void @llvm.lifetime.start.p0i8(i64 4, i8* nonnull %3) #4
  %4 = bitcast [5 x i32]* %2 to i8*
  call void @llvm.lifetime.start.p0i8(i64 20, i8* nonnull %4) #4
  %5 = call i32 (i8*, ...) @__isoc99_scanf(i8* getelementptr inbounds ([3 x i8], [3 x i8]* @.str, i64 0, i64 0), i32* nonnull %1)
  %6 = load i32, i32* %1, align 4, !tbaa !5
  %7 = icmp eq i32 %6, 0
  br i1 %7, label %8, label %11

8:                                                ; preds = %0
  %9 = call i32 @putchar(i32 48)
  %10 = load i32, i32* %1, align 4, !tbaa !5
  br label %11

11:                                               ; preds = %8, %0
  %12 = phi i32 [ %10, %8 ], [ %6, %0 ]
  %13 = icmp sgt i32 %12, 0
  br i1 %13, label %19, label %34

14:                                               ; preds = %19
  %15 = trunc i64 %25 to i32
  store i32 %24, i32* %1, align 4, !tbaa !5
  %16 = icmp ugt i32 %15, 1
  br i1 %16, label %17, label %34

17:                                               ; preds = %14
  %18 = and i64 %25, 4294967295
  br label %27

19:                                               ; preds = %11, %19
  %20 = phi i64 [ %25, %19 ], [ 1, %11 ]
  %21 = phi i32 [ %24, %19 ], [ %12, %11 ]
  %22 = urem i32 %21, 10
  %23 = getelementptr inbounds [5 x i32], [5 x i32]* %2, i64 0, i64 %20
  store i32 %22, i32* %23, align 4, !tbaa !5
  %24 = udiv i32 %21, 10
  %25 = add nuw i64 %20, 1
  %26 = icmp ult i32 %21, 10
  br i1 %26, label %14, label %19, !llvm.loop !9

27:                                               ; preds = %17, %27
  %28 = phi i64 [ 1, %17 ], [ %32, %27 ]
  %29 = getelementptr inbounds [5 x i32], [5 x i32]* %2, i64 0, i64 %28
  %30 = load i32, i32* %29, align 4, !tbaa !5
  %31 = call i32 (i8*, ...) @printf(i8* nonnull dereferenceable(1) getelementptr inbounds ([3 x i8], [3 x i8]* @.str, i64 0, i64 0), i32 %30)
  %32 = add nuw nsw i64 %28, 1
  %33 = icmp eq i64 %32, %18
  br i1 %33, label %34, label %27, !llvm.loop !11

34:                                               ; preds = %27, %11, %14
  call void @llvm.lifetime.end.p0i8(i64 20, i8* nonnull %4) #4
  call void @llvm.lifetime.end.p0i8(i64 4, i8* nonnull %3) #4
  ret i32 0
}

; Function Attrs: argmemonly mustprogress nofree nosync nounwind willreturn
declare void @llvm.lifetime.start.p0i8(i64 immarg, i8* nocapture) #1

; Function Attrs: nofree nounwind
declare noundef i32 @__isoc99_scanf(i8* nocapture noundef readonly, ...) local_unnamed_addr #2

; Function Attrs: nofree nounwind
declare noundef i32 @printf(i8* nocapture noundef readonly, ...) local_unnamed_addr #2

; Function Attrs: argmemonly mustprogress nofree nosync nounwind willreturn
declare void @llvm.lifetime.end.p0i8(i64 immarg, i8* nocapture) #1

; Function Attrs: nofree nounwind
declare noundef i32 @putchar(i32 noundef) local_unnamed_addr #3


!llvm.module.flags = !{!0, !1, !2, !3}
!llvm.ident = !{!4}

!0 = !{i32 1, !"wchar_size", i32 4}
!1 = !{i32 7, !"PIC Level", i32 2}
!2 = !{i32 7, !"PIE Level", i32 2}
!3 = !{i32 7, !"uwtable", i32 1}
!4 = !{!"clang version 13.0.0"}
!5 = !{!6, !6, i64 0}
!6 = !{!"int", !7, i64 0}
!7 = !{!"omnipotent char", !8, i64 0}
!8 = !{!"Simple C/C++ TBAA"}
!9 = distinct !{!9, !10}
!10 = !{!"llvm.loop.mustprogress"}
!11 = distinct !{!11, !10}
